; Function Attrs: mustprogress uwtable
define hidden void @_ZN3smt12model_finder19register_quantifierEP10quantifier(ptr noundef nonnull align 8 dereferenceable(128) %this, ptr noundef %q) local_unnamed_addr #3 align 2 {
entry:
  %ref.tmp.i = alloca %"struct.obj_map<quantifier, smt::mf::quantifier_info *>::key_data", align 8
  %call = tail call noalias noundef ptr @_ZN6memory8allocateEm(i64 noundef 128)
  %m = getelementptr inbounds i8, ptr %this, i64 8
  %0 = load ptr, ptr %m, align 8
  tail call void @_ZN3smt2mf15quantifier_infoC2ERNS_12model_finderER11ast_managerP10quantifier(ptr noundef nonnull align 8 dereferenceable(128) %call, ptr noundef nonnull align 8 dereferenceable(128) %this, ptr noundef nonnull align 8 dereferenceable(976) %0, ptr noundef %q)
  %m_q2info = getelementptr inbounds i8, ptr %this, i64 40
  call void @llvm.lifetime.start.p0(i64 16, ptr nonnull %ref.tmp.i)
  store ptr %q, ptr %ref.tmp.i, align 8
  %m_value.i.i = getelementptr inbounds i8, ptr %ref.tmp.i, i64 8
  store ptr %call, ptr %m_value.i.i, align 8
  call void @_ZN14core_hashtableIN7obj_mapI10quantifierPN3smt2mf15quantifier_infoEE13obj_map_entryE8obj_hashINS6_8key_dataEE10default_eqIS9_EE6insertEOS9_(ptr noundef nonnull align 8 dereferenceable(20) %m_q2info, ptr noundef nonnull align 8 dereferenceable(16) %ref.tmp.i)
  call void @llvm.lifetime.end.p0(i64 16, ptr nonnull %ref.tmp.i)
  %m_quantifiers = getelementptr inbounds i8, ptr %this, i64 64
  %1 = load ptr, ptr %m_quantifiers, align 8
  %cmp.i = icmp eq ptr %1, null
  br i1 %cmp.i, label %if.then.i, label %lor.lhs.false.i

lor.lhs.false.i:                                  ; preds = %entry
  %arrayidx.i = getelementptr inbounds i8, ptr %1, i64 -4
  %2 = load i32, ptr %arrayidx.i, align 4
  %arrayidx4.i = getelementptr inbounds i8, ptr %1, i64 -8
  %3 = load i32, ptr %arrayidx4.i, align 4
  %cmp5.i = icmp eq i32 %2, %3
  br i1 %cmp5.i, label %if.then.i, label %_ZN6vectorIP10quantifierLb0EjE9push_backERKS1_.exit

if.then.i:                                        ; preds = %lor.lhs.false.i, %entry
  call void @_ZN6vectorIP10quantifierLb0EjE13expand_vectorEv(ptr noundef nonnull align 8 dereferenceable(8) %m_quantifiers)
  %.pre.i = load ptr, ptr %m_quantifiers, align 8
  %arrayidx8.phi.trans.insert.i = getelementptr inbounds i8, ptr %.pre.i, i64 -4
  %.pre1.i = load i32, ptr %arrayidx8.phi.trans.insert.i, align 4
  br label %_ZN6vectorIP10quantifierLb0EjE9push_backERKS1_.exit

_ZN6vectorIP10quantifierLb0EjE9push_backERKS1_.exit: ; preds = %lor.lhs.false.i, %if.then.i
  %4 = phi i32 [ %.pre1.i, %if.then.i ], [ %2, %lor.lhs.false.i ]
  %5 = phi ptr [ %.pre.i, %if.then.i ], [ %1, %lor.lhs.false.i ]
  %idx.ext.i = zext i32 %4 to i64
  %add.ptr.i = getelementptr inbounds ptr, ptr %5, i64 %idx.ext.i
  store ptr %q, ptr %add.ptr.i, align 8
  %6 = load ptr, ptr %m_quantifiers, align 8
  %arrayidx10.i = getelementptr inbounds i8, ptr %6, i64 -4
  %7 = load i32, ptr %arrayidx10.i, align 4
  %inc.i = add i32 %7, 1
  store i32 %inc.i, ptr %arrayidx10.i, align 4
  %m_analyzer = getelementptr inbounds i8, ptr %this, i64 24
  %8 = load ptr, ptr %m_analyzer, align 8
  call void @_ZN3smt2mf19quantifier_analyzerclEPNS0_15quantifier_infoE(ptr noundef nonnull align 8 dereferenceable(464) %8, ptr noundef nonnull %call)
  ret void
}